target datalayout = "e-m:e-p270:32:32-p271:32:32-p272:64:64-i64:64-i128:128-f80:128-n8:16:32:64-S128"
target triple = "x86_64-pc-linux-gnu"

%struct.Aig_Man_t_ = type { ptr, ptr, ptr, ptr, ptr, ptr, ptr, %struct.Aig_Obj_t_, i32, i32, i32, i32, i32, i32, [7 x i32], i32, ptr, i32, ptr, i32, ptr, i32, i32, i32, ptr, i32, i32, i32, i32, i32, ptr, ptr, i32, ptr, ptr, i32, ptr, ptr, i32, i32, i32, ptr, ptr, ptr, ptr, ptr, ptr, ptr, ptr, ptr, ptr, ptr, ptr, ptr, ptr, i32, ptr, ptr, ptr, ptr, i32, i64, i64, i64, ptr, ptr }
%struct.Aig_Obj_t_ = type { %union.anon, ptr, ptr, i64, i32, i32, %union.anon.0 }
%union.anon = type { ptr }
%union.anon.0 = type { ptr }

@.str.30 = private unnamed_addr constant [39 x i8] c"Converting miter into AIG has failed.\0A\00", align 1
@.str.88 = private unnamed_addr constant [44 x i8] c"The networks have different number of PIs.\0A\00", align 1
@.str.89 = private unnamed_addr constant [44 x i8] c"The networks have different number of POs.\0A\00", align 1
@.str.90 = private unnamed_addr constant [46 x i8] c"The networks have different number of flops.\0A\00", align 1

; Function Attrs: nounwind uwtable
define internal i32 @Aig_ManRegNum(ptr noundef %0) #0 {
  %2 = alloca ptr, align 8
  store ptr %0, ptr %2, align 8
  %3 = load ptr, ptr %2, align 8
  %4 = getelementptr inbounds %struct.Aig_Man_t_, ptr %3, i32 0, i32 8
  %5 = load i32, ptr %4, align 8
  ret i32 %5
}

; Function Attrs: nounwind uwtable
define internal i32 @Saig_ManPoNum(ptr noundef %0) #0 {
  %2 = alloca ptr, align 8
  store ptr %0, ptr %2, align 8
  %3 = load ptr, ptr %2, align 8
  %4 = getelementptr inbounds %struct.Aig_Man_t_, ptr %3, i32 0, i32 10
  %5 = load i32, ptr %4, align 8
  ret i32 %5
}

; Function Attrs: nounwind uwtable
define internal i32 @Saig_ManPiNum(ptr noundef %0) #0 {
  %2 = alloca ptr, align 8
  store ptr %0, ptr %2, align 8
  %3 = load ptr, ptr %2, align 8
  %4 = getelementptr inbounds %struct.Aig_Man_t_, ptr %3, i32 0, i32 9
  %5 = load i32, ptr %4, align 4
  ret i32 %5
}

; Function Attrs: nounwind uwtable
define i32 @Abc_NtkDarAbSec(ptr noundef %0, ptr noundef %1, i32 noundef %2, i32 noundef %3) #0 {
  %5 = alloca i32, align 4
  %6 = alloca ptr, align 8
  %7 = alloca ptr, align 8
  %8 = alloca i32, align 4
  %9 = alloca i32, align 4
  %10 = alloca ptr, align 8
  %11 = alloca ptr, align 8
  %12 = alloca i32, align 4
  store ptr %0, ptr %6, align 8
  store ptr %1, ptr %7, align 8
  store i32 %2, ptr %8, align 4
  store i32 %3, ptr %9, align 4
  store ptr null, ptr %11, align 8
  %13 = load ptr, ptr %6, align 8
  %14 = call ptr @Abc_NtkToDar(ptr noundef %13, i32 noundef 0, i32 noundef 1)
  store ptr %14, ptr %10, align 8
  %15 = load ptr, ptr %10, align 8
  %16 = icmp eq ptr %15, null
  br i1 %16, label %17, label %18

17:                                               ; preds = %4
  call void (i32, ptr, ...) @Abc_Print(i32 noundef 1, ptr noundef @.str.30)
  store i32 -1, ptr %5, align 4
  br label %69

18:                                               ; preds = %4
  %19 = load ptr, ptr %7, align 8
  %20 = icmp ne ptr %19, null
  br i1 %20, label %21, label %56

21:                                               ; preds = %18
  %22 = load ptr, ptr %7, align 8
  %23 = call ptr @Abc_NtkToDar(ptr noundef %22, i32 noundef 0, i32 noundef 1)
  store ptr %23, ptr %11, align 8
  %24 = load ptr, ptr %11, align 8
  %25 = icmp eq ptr %24, null
  br i1 %25, label %26, label %28

26:                                               ; preds = %21
  %27 = load ptr, ptr %10, align 8
  call void @Aig_ManStop(ptr noundef %27)
  call void (i32, ptr, ...) @Abc_Print(i32 noundef 1, ptr noundef @.str.30)
  store i32 -1, ptr %5, align 4
  br label %69

28:                                               ; preds = %21
  %29 = load ptr, ptr %10, align 8
  %30 = call i32 @Saig_ManPiNum(ptr noundef %29)
  %31 = load ptr, ptr %11, align 8
  %32 = call i32 @Saig_ManPiNum(ptr noundef %31)
  %33 = icmp ne i32 %30, %32
  br i1 %33, label %34, label %37

34:                                               ; preds = %28
  %35 = load ptr, ptr %10, align 8
  call void @Aig_ManStop(ptr noundef %35)
  %36 = load ptr, ptr %11, align 8
  call void @Aig_ManStop(ptr noundef %36)
  call void (i32, ptr, ...) @Abc_Print(i32 noundef 1, ptr noundef @.str.88)
  store i32 -1, ptr %5, align 4
  br label %69

37:                                               ; preds = %28
  %38 = load ptr, ptr %10, align 8
  %39 = call i32 @Saig_ManPoNum(ptr noundef %38)
  %40 = load ptr, ptr %11, align 8
  %41 = call i32 @Saig_ManPoNum(ptr noundef %40)
  %42 = icmp ne i32 %39, %41
  br i1 %42, label %43, label %46

43:                                               ; preds = %37
  %44 = load ptr, ptr %10, align 8
  call void @Aig_ManStop(ptr noundef %44)
  %45 = load ptr, ptr %11, align 8
  call void @Aig_ManStop(ptr noundef %45)
  call void (i32, ptr, ...) @Abc_Print(i32 noundef 1, ptr noundef @.str.89)
  store i32 -1, ptr %5, align 4
  br label %69

46:                                               ; preds = %37
  %47 = load ptr, ptr %10, align 8
  %48 = call i32 @Aig_ManRegNum(ptr noundef %47)
  %49 = load ptr, ptr %11, align 8
  %50 = call i32 @Aig_ManRegNum(ptr noundef %49)
  %51 = icmp ne i32 %48, %50
  br i1 %51, label %52, label %55

52:                                               ; preds = %46
  %53 = load ptr, ptr %10, align 8
  call void @Aig_ManStop(ptr noundef %53)
  %54 = load ptr, ptr %11, align 8
  call void @Aig_ManStop(ptr noundef %54)
  call void (i32, ptr, ...) @Abc_Print(i32 noundef 1, ptr noundef @.str.90)
  store i32 -1, ptr %5, align 4
  br label %69

55:                                               ; preds = %46
  br label %56

56:                                               ; preds = %55, %18
  %57 = load ptr, ptr %10, align 8
  %58 = load ptr, ptr %11, align 8
  %59 = load i32, ptr %8, align 4
  %60 = load i32, ptr %9, align 4
  %61 = call i32 @Ssw_SecSpecialMiter(ptr noundef %57, ptr noundef %58, i32 noundef %59, i32 noundef %60)
  store i32 %61, ptr %12, align 4
  %62 = load ptr, ptr %10, align 8
  call void @Aig_ManStop(ptr noundef %62)
  %63 = load ptr, ptr %11, align 8
  %64 = icmp ne ptr %63, null
  br i1 %64, label %65, label %67

65:                                               ; preds = %56
  %66 = load ptr, ptr %11, align 8
  call void @Aig_ManStop(ptr noundef %66)
  br label %67

67:                                               ; preds = %65, %56
  %68 = load i32, ptr %12, align 4
  store i32 %68, ptr %5, align 4
  br label %69

69:                                               ; preds = %67, %52, %43, %34, %26, %17
  %70 = load i32, ptr %5, align 4
  ret i32 %70
}