; Function Attrs: nounwind uwtable
define i32 @Abc_NtkDarAbSec(ptr noundef %0, ptr noundef %1, i32 noundef %2, i32 noundef %3) local_unnamed_addr #1 {
  %5 = tail call ptr @Abc_NtkToDar(ptr noundef %0, i32 noundef 0, i32 noundef 1)
  %6 = icmp eq ptr %5, null
  br i1 %6, label %7, label %8

7:                                                ; preds = %4
  tail call void (i32, ptr, ...) @Abc_Print(i32 poison, ptr noundef nonnull @.str.30)
  br label %28

8:                                                ; preds = %4
  %.not = icmp eq ptr %1, null
  br i1 %.not, label %25, label %9

9:                                                ; preds = %8
  %10 = tail call ptr @Abc_NtkToDar(ptr noundef nonnull %1, i32 noundef 0, i32 noundef 1)
  %11 = icmp eq ptr %10, null
  br i1 %11, label %12, label %13

12:                                               ; preds = %9
  tail call void @Aig_ManStop(ptr noundef nonnull %5) #19
  tail call void (i32, ptr, ...) @Abc_Print(i32 poison, ptr noundef nonnull @.str.30)
  br label %28

13:                                               ; preds = %9
  %14 = getelementptr i8, ptr %5, i64 108
  %.val36 = load i32, ptr %14, align 4
  %15 = getelementptr i8, ptr %10, i64 108
  %.val35 = load i32, ptr %15, align 4
  %.not30 = icmp eq i32 %.val36, %.val35
  br i1 %.not30, label %17, label %16

16:                                               ; preds = %13
  tail call void @Aig_ManStop(ptr noundef nonnull %5) #19
  tail call void @Aig_ManStop(ptr noundef nonnull %10) #19
  tail call void (i32, ptr, ...) @Abc_Print(i32 poison, ptr noundef nonnull @.str.88)
  br label %28

17:                                               ; preds = %13
  %18 = getelementptr i8, ptr %5, i64 112
  %.val38 = load i32, ptr %18, align 8
  %19 = getelementptr i8, ptr %10, i64 112
  %.val37 = load i32, ptr %19, align 8
  %.not31 = icmp eq i32 %.val38, %.val37
  br i1 %.not31, label %21, label %20

20:                                               ; preds = %17
  tail call void @Aig_ManStop(ptr noundef nonnull %5) #19
  tail call void @Aig_ManStop(ptr noundef nonnull %10) #19
  tail call void (i32, ptr, ...) @Abc_Print(i32 poison, ptr noundef nonnull @.str.89)
  br label %28

21:                                               ; preds = %17
  %22 = getelementptr i8, ptr %5, i64 104
  %.val34 = load i32, ptr %22, align 8
  %23 = getelementptr i8, ptr %10, i64 104
  %.val = load i32, ptr %23, align 8
  %.not32 = icmp eq i32 %.val34, %.val
  br i1 %.not32, label %25, label %24

24:                                               ; preds = %21
  tail call void @Aig_ManStop(ptr noundef nonnull %5) #19
  tail call void @Aig_ManStop(ptr noundef nonnull %10) #19
  tail call void (i32, ptr, ...) @Abc_Print(i32 poison, ptr noundef nonnull @.str.90)
  br label %28

25:                                               ; preds = %21, %8
  %.026 = phi ptr [ %10, %21 ], [ null, %8 ]
  %26 = tail call i32 @Ssw_SecSpecialMiter(ptr noundef nonnull %5, ptr noundef %.026, i32 noundef %2, i32 noundef %3) #19
  tail call void @Aig_ManStop(ptr noundef nonnull %5) #19
  %.not33 = icmp eq ptr %.026, null
  br i1 %.not33, label %28, label %27

27:                                               ; preds = %25
  tail call void @Aig_ManStop(ptr noundef nonnull %.026) #19
  br label %28

28:                                               ; preds = %25, %27, %24, %20, %16, %12, %7
  %.0 = phi i32 [ -1, %7 ], [ -1, %12 ], [ -1, %16 ], [ -1, %20 ], [ -1, %24 ], [ %26, %27 ], [ %26, %25 ]
  ret i32 %.0
}